target datalayout = "e-m:e-p270:32:32-p271:32:32-p272:64:64-i64:64-i128:128-f80:128-n8:16:32:64-S128"
target triple = "x86_64-pc-linux-gnu"

%struct.Kit_DsdNtk_t_ = type { i16, i16, i16, i16, ptr, ptr, ptr }
%struct.Kit_DsdObj_t_ = type { i32, [0 x i16] }

; Function Attrs: inlinehint nounwind uwtable
define internal i32 @Abc_Lit2Var(i32 noundef %0) #4 {
  %2 = alloca i32, align 4
  store i32 %0, ptr %2, align 4, !tbaa !3
  %3 = load i32, ptr %2, align 4, !tbaa !3
  %4 = ashr i32 %3, 1
  ret i32 %4
}

; Function Attrs: inlinehint nounwind uwtable
define internal ptr @Kit_DsdNtkObj(ptr noundef %0, i32 noundef %1) #4 {
  %3 = alloca ptr, align 8
  %4 = alloca i32, align 4
  store ptr %0, ptr %3, align 8, !tbaa !37
  store i32 %1, ptr %4, align 4, !tbaa !3
  %5 = load i32, ptr %4, align 4, !tbaa !3
  %6 = load ptr, ptr %3, align 8, !tbaa !37
  %7 = getelementptr inbounds nuw %struct.Kit_DsdNtk_t_, ptr %6, i32 0, i32 0
  %8 = load i16, ptr %7, align 8, !tbaa !41
  %9 = zext i16 %8 to i32
  %10 = icmp slt i32 %5, %9
  br i1 %10, label %11, label %12

11:                                               ; preds = %2
  br label %25

12:                                               ; preds = %2
  %13 = load ptr, ptr %3, align 8, !tbaa !37
  %14 = getelementptr inbounds nuw %struct.Kit_DsdNtk_t_, ptr %13, i32 0, i32 6
  %15 = load ptr, ptr %14, align 8, !tbaa !47
  %16 = load i32, ptr %4, align 4, !tbaa !3
  %17 = load ptr, ptr %3, align 8, !tbaa !37
  %18 = getelementptr inbounds nuw %struct.Kit_DsdNtk_t_, ptr %17, i32 0, i32 0
  %19 = load i16, ptr %18, align 8, !tbaa !41
  %20 = zext i16 %19 to i32
  %21 = sub nsw i32 %16, %20
  %22 = sext i32 %21 to i64
  %23 = getelementptr inbounds ptr, ptr %15, i64 %22
  %24 = load ptr, ptr %23, align 8, !tbaa !39
  br label %25

25:                                               ; preds = %12, %11
  %26 = phi ptr [ null, %11 ], [ %24, %12 ]
  ret ptr %26
}

; Function Attrs: nounwind uwtable
define i32 @Kit_DsdFindLargeBox_rec(ptr noundef %0, i32 noundef %1, i32 noundef %2) #0 {
  %4 = alloca i32, align 4
  %5 = alloca ptr, align 8
  %6 = alloca i32, align 4
  %7 = alloca i32, align 4
  %8 = alloca ptr, align 8
  %9 = alloca i32, align 4
  %10 = alloca i32, align 4
  %11 = alloca i32, align 4
  %12 = alloca i32, align 4
  store ptr %0, ptr %5, align 8, !tbaa !37
  store i32 %1, ptr %6, align 4, !tbaa !3
  store i32 %2, ptr %7, align 4, !tbaa !3
  call void @llvm.lifetime.start.p0(i64 8, ptr %8) #9
  call void @llvm.lifetime.start.p0(i64 4, ptr %9) #9
  call void @llvm.lifetime.start.p0(i64 4, ptr %10) #9
  call void @llvm.lifetime.start.p0(i64 4, ptr %11) #9
  %13 = load ptr, ptr %5, align 8, !tbaa !37
  %14 = load i32, ptr %6, align 4, !tbaa !3
  %15 = call ptr @Kit_DsdNtkObj(ptr noundef %13, i32 noundef %14)
  store ptr %15, ptr %8, align 8, !tbaa !39
  %16 = load ptr, ptr %8, align 8, !tbaa !39
  %17 = icmp eq ptr %16, null
  br i1 %17, label %18, label %19

18:                                               ; preds = %3
  store i32 0, ptr %4, align 4
  store i32 1, ptr %12, align 4
  br label %62

19:                                               ; preds = %3
  %20 = load ptr, ptr %8, align 8, !tbaa !39
  %21 = load i32, ptr %20, align 4
  %22 = lshr i32 %21, 6
  %23 = and i32 %22, 7
  %24 = icmp eq i32 %23, 5
  br i1 %24, label %25, label %32

25:                                               ; preds = %19
  %26 = load ptr, ptr %8, align 8, !tbaa !39
  %27 = load i32, ptr %26, align 4
  %28 = lshr i32 %27, 26
  %29 = load i32, ptr %7, align 4, !tbaa !3
  %30 = icmp sgt i32 %28, %29
  br i1 %30, label %31, label %32

31:                                               ; preds = %25
  store i32 1, ptr %4, align 4
  store i32 1, ptr %12, align 4
  br label %62

32:                                               ; preds = %25, %19
  store i32 0, ptr %11, align 4, !tbaa !3
  store i32 0, ptr %10, align 4, !tbaa !3
  br label %33

33:                                               ; preds = %57, %32
  %34 = load i32, ptr %10, align 4, !tbaa !3
  %35 = load ptr, ptr %8, align 8, !tbaa !39
  %36 = load i32, ptr %35, align 4
  %37 = lshr i32 %36, 26
  %38 = icmp ult i32 %34, %37
  br i1 %38, label %39, label %47

39:                                               ; preds = %33
  %40 = load ptr, ptr %8, align 8, !tbaa !39
  %41 = getelementptr inbounds nuw %struct.Kit_DsdObj_t_, ptr %40, i32 0, i32 1
  %42 = load i32, ptr %10, align 4, !tbaa !3
  %43 = zext i32 %42 to i64
  %44 = getelementptr inbounds nuw [0 x i16], ptr %41, i64 0, i64 %43
  %45 = load i16, ptr %44, align 2, !tbaa !58
  %46 = zext i16 %45 to i32
  store i32 %46, ptr %9, align 4, !tbaa !3
  br label %47

47:                                               ; preds = %39, %33
  %48 = phi i1 [ false, %33 ], [ true, %39 ]
  br i1 %48, label %49, label %60

49:                                               ; preds = %47
  %50 = load ptr, ptr %5, align 8, !tbaa !37
  %51 = load i32, ptr %9, align 4, !tbaa !3
  %52 = call i32 @Abc_Lit2Var(i32 noundef %51)
  %53 = load i32, ptr %7, align 4, !tbaa !3
  %54 = call i32 @Kit_DsdFindLargeBox_rec(ptr noundef %50, i32 noundef %52, i32 noundef %53)
  %55 = load i32, ptr %11, align 4, !tbaa !3
  %56 = or i32 %55, %54
  store i32 %56, ptr %11, align 4, !tbaa !3
  br label %57

57:                                               ; preds = %49
  %58 = load i32, ptr %10, align 4, !tbaa !3
  %59 = add i32 %58, 1
  store i32 %59, ptr %10, align 4, !tbaa !3
  br label %33, !llvm.loop !122

60:                                               ; preds = %47
  %61 = load i32, ptr %11, align 4, !tbaa !3
  store i32 %61, ptr %4, align 4
  store i32 1, ptr %12, align 4
  br label %62

62:                                               ; preds = %60, %31, %18
  call void @llvm.lifetime.end.p0(i64 4, ptr %11) #9
  call void @llvm.lifetime.end.p0(i64 4, ptr %10) #9
  call void @llvm.lifetime.end.p0(i64 4, ptr %9) #9
  call void @llvm.lifetime.end.p0(i64 8, ptr %8) #9
  %63 = load i32, ptr %4, align 4
  ret i32 %63
}