; Function Attrs: nofree nosync nounwind memory(read, inaccessiblemem: none) uwtable
define range(i32 0, 2) i32 @Kit_DsdFindLargeBox_rec(ptr noundef readonly captures(none) %0, i32 noundef %1, i32 noundef %2) local_unnamed_addr #17 {
  %4 = load i16, ptr %0, align 8, !tbaa !34
  %5 = zext i16 %4 to i32
  %6 = icmp slt i32 %1, %5
  br i1 %6, label %.critedge, label %Kit_DsdNtkObj.exit

Kit_DsdNtkObj.exit:                               ; preds = %3
  %7 = getelementptr inbounds nuw i8, ptr %0, i64 24
  %8 = load ptr, ptr %7, align 8, !tbaa !40
  %9 = sub nsw i32 %1, %5
  %10 = sext i32 %9 to i64
  %11 = getelementptr inbounds ptr, ptr %8, i64 %10
  %12 = load ptr, ptr %11, align 8, !tbaa !41
  %13 = icmp eq ptr %12, null
  br i1 %13, label %.critedge, label %14

14:                                               ; preds = %Kit_DsdNtkObj.exit
  %15 = load i32, ptr %12, align 4
  %16 = and i32 %15, 448
  %17 = icmp eq i32 %16, 320
  %18 = lshr i32 %15, 26
  %19 = icmp sgt i32 %18, %2
  %or.cond = and i1 %17, %19
  br i1 %or.cond, label %.critedge, label %.preheader

.preheader:                                       ; preds = %14
  %.not = icmp ult i32 %15, 67108864
  br i1 %.not, label %.critedge, label %.lr.ph

.lr.ph:                                           ; preds = %.preheader
  %20 = getelementptr inbounds nuw i8, ptr %12, i64 4
  %wide.trip.count = zext nneg i32 %18 to i64
  br label %21

21:                                               ; preds = %.lr.ph, %21
  %indvars.iv = phi i64 [ 0, %.lr.ph ], [ %indvars.iv.next, %21 ]
  %.021 = phi i32 [ 0, %.lr.ph ], [ %27, %21 ]
  %22 = getelementptr inbounds nuw [0 x i16], ptr %20, i64 0, i64 %indvars.iv
  %23 = load i16, ptr %22, align 2, !tbaa !49
  %24 = lshr i16 %23, 1
  %25 = zext nneg i16 %24 to i32
  %26 = tail call i32 @Kit_DsdFindLargeBox_rec(ptr noundef nonnull %0, i32 noundef %25, i32 noundef %2)
  %27 = or i32 %26, %.021
  %indvars.iv.next = add nuw nsw i64 %indvars.iv, 1
  %exitcond.not = icmp eq i64 %indvars.iv.next, %wide.trip.count
  br i1 %exitcond.not, label %.critedge, label %21, !llvm.loop !111

.critedge:                                        ; preds = %21, %.preheader, %3, %14, %Kit_DsdNtkObj.exit
  %.017 = phi i32 [ 0, %Kit_DsdNtkObj.exit ], [ 1, %14 ], [ 0, %3 ], [ 0, %.preheader ], [ %27, %21 ]
  ret i32 %.017
}